; Function Attrs: mustprogress nounwind uwtable
define internal void @"_ZNSt17_Function_handlerIFvRKNSt7__cxx1112basic_stringIcSt11char_traitsIcESaIcEEEEN12_GLOBAL__N_13$_7EE9_M_invokeERKSt9_Any_dataS7_"(ptr nocapture nonnull readnone align 8 %0, ptr noundef nonnull align 8 dereferenceable(32) %1) #0 align 2 {
  %3 = load ptr, ptr getelementptr inbounds nuw (i8, ptr @_ZN12_GLOBAL__N_134AArch64PostLegalizerLoweringOptionB5cxx11E, i64 8), align 8
  %4 = load ptr, ptr getelementptr inbounds nuw (i8, ptr @_ZN12_GLOBAL__N_134AArch64PostLegalizerLoweringOptionB5cxx11E, i64 16), align 8
  %.not.i.i.i.i = icmp eq ptr %3, %4
  br i1 %.not.i.i.i.i, label %8, label %5

5:                                                ; preds = %2
  tail call void @_ZNSt7__cxx1112basic_stringIcSt11char_traitsIcESaIcEEC1ERKS4_(ptr noundef nonnull align 8 dereferenceable(32) %3, ptr noundef nonnull align 8 dereferenceable(32) %1) #22
  %6 = load ptr, ptr getelementptr inbounds nuw (i8, ptr @_ZN12_GLOBAL__N_134AArch64PostLegalizerLoweringOptionB5cxx11E, i64 8), align 8
  %7 = getelementptr inbounds i8, ptr %6, i64 32
  store ptr %7, ptr getelementptr inbounds nuw (i8, ptr @_ZN12_GLOBAL__N_134AArch64PostLegalizerLoweringOptionB5cxx11E, i64 8), align 8
  br label %"_ZSt10__invoke_rIvRN12_GLOBAL__N_13$_7EJRKNSt7__cxx1112basic_stringIcSt11char_traitsIcESaIcEEEEENSt9enable_ifIX16is_invocable_r_vIT_T0_DpT1_EESC_E4typeEOSD_DpOSE_.exit"

8:                                                ; preds = %2
  tail call void @_ZNSt6vectorINSt7__cxx1112basic_stringIcSt11char_traitsIcESaIcEEESaIS5_EE17_M_realloc_insertIJRKS5_EEEvN9__gnu_cxx17__normal_iteratorIPS5_S7_EEDpOT_(ptr noundef nonnull align 8 dereferenceable(24) @_ZN12_GLOBAL__N_134AArch64PostLegalizerLoweringOptionB5cxx11E, ptr %3, ptr noundef nonnull align 8 dereferenceable(32) %1)
  br label %"_ZSt10__invoke_rIvRN12_GLOBAL__N_13$_7EJRKNSt7__cxx1112basic_stringIcSt11char_traitsIcESaIcEEEEENSt9enable_ifIX16is_invocable_r_vIT_T0_DpT1_EESC_E4typeEOSD_DpOSE_.exit"

"_ZSt10__invoke_rIvRN12_GLOBAL__N_13$_7EJRKNSt7__cxx1112basic_stringIcSt11char_traitsIcESaIcEEEEENSt9enable_ifIX16is_invocable_r_vIT_T0_DpT1_EESC_E4typeEOSD_DpOSE_.exit": ; preds = %5, %8
  ret void
}